target datalayout = "e-m:e-p270:32:32-p271:32:32-p272:64:64-i64:64-i128:128-f80:128-n8:16:32:64-S128"
target triple = "x86_64-pc-linux-gnu"

%struct.Agobj_s = type { %struct.Agtag_s, ptr }
%struct.Agtag_s = type { i32, i64 }

; Function Attrs: nounwind uwtable
define internal void @set_attrwf(ptr noundef %0, i1 noundef zeroext %1, i1 noundef zeroext %2) #0 {
  %4 = alloca ptr, align 8
  %5 = alloca i8, align 1
  %6 = alloca i8, align 1
  %7 = alloca ptr, align 8
  %8 = alloca ptr, align 8
  %9 = alloca ptr, align 8
  store ptr %0, ptr %4, align 8
  %10 = zext i1 %1 to i8
  store i8 %10, ptr %5, align 1
  %11 = zext i1 %2 to i8
  store i8 %11, ptr %6, align 1
  %12 = load i8, ptr %6, align 1
  %13 = trunc i8 %12 to i1
  %14 = zext i1 %13 to i32
  %15 = load ptr, ptr %4, align 8
  %16 = getelementptr inbounds %struct.Agobj_s, ptr %15, i32 0, i32 0
  %17 = load i32, ptr %16, align 8
  %18 = and i32 %14, 1
  %19 = shl i32 %18, 3
  %20 = and i32 %17, -9
  %21 = or i32 %20, %19
  store i32 %21, ptr %16, align 8
  %22 = load ptr, ptr %4, align 8
  %23 = call ptr @agfstsubg(ptr noundef %22)
  store ptr %23, ptr %7, align 8
  br label %24

24:                                               ; preds = %31, %3
  %25 = load ptr, ptr %7, align 8
  %26 = icmp ne ptr %25, null
  br i1 %26, label %27, label %34

27:                                               ; preds = %24
  %28 = load ptr, ptr %7, align 8
  %29 = load i8, ptr %6, align 1
  %30 = trunc i8 %29 to i1
  call void @set_attrwf(ptr noundef %28, i1 noundef zeroext false, i1 noundef zeroext %30)
  br label %31

31:                                               ; preds = %27
  %32 = load ptr, ptr %7, align 8
  %33 = call ptr @agnxtsubg(ptr noundef %32)
  store ptr %33, ptr %7, align 8
  br label %24

34:                                               ; preds = %24
  %35 = load i8, ptr %5, align 1
  %36 = trunc i8 %35 to i1
  br i1 %36, label %37, label %81

37:                                               ; preds = %34
  %38 = load ptr, ptr %4, align 8
  %39 = call ptr @agfstnode(ptr noundef %38)
  store ptr %39, ptr %8, align 8
  br label %40

40:                                               ; preds = %76, %37
  %41 = load ptr, ptr %8, align 8
  %42 = icmp ne ptr %41, null
  br i1 %42, label %43, label %80

43:                                               ; preds = %40
  %44 = load i8, ptr %6, align 1
  %45 = trunc i8 %44 to i1
  %46 = zext i1 %45 to i32
  %47 = load ptr, ptr %8, align 8
  %48 = getelementptr inbounds %struct.Agobj_s, ptr %47, i32 0, i32 0
  %49 = load i32, ptr %48, align 8
  %50 = and i32 %46, 1
  %51 = shl i32 %50, 3
  %52 = and i32 %49, -9
  %53 = or i32 %52, %51
  store i32 %53, ptr %48, align 8
  %54 = load ptr, ptr %4, align 8
  %55 = load ptr, ptr %8, align 8
  %56 = call ptr @agfstout(ptr noundef %54, ptr noundef %55)
  store ptr %56, ptr %9, align 8
  br label %57

57:                                               ; preds = %71, %43
  %58 = load ptr, ptr %9, align 8
  %59 = icmp ne ptr %58, null
  br i1 %59, label %60, label %75

60:                                               ; preds = %57
  %61 = load i8, ptr %6, align 1
  %62 = trunc i8 %61 to i1
  %63 = zext i1 %62 to i32
  %64 = load ptr, ptr %9, align 8
  %65 = getelementptr inbounds %struct.Agobj_s, ptr %64, i32 0, i32 0
  %66 = load i32, ptr %65, align 8
  %67 = and i32 %63, 1
  %68 = shl i32 %67, 3
  %69 = and i32 %66, -9
  %70 = or i32 %69, %68
  store i32 %70, ptr %65, align 8
  br label %71

71:                                               ; preds = %60
  %72 = load ptr, ptr %4, align 8
  %73 = load ptr, ptr %9, align 8
  %74 = call ptr @agnxtout(ptr noundef %72, ptr noundef %73)
  store ptr %74, ptr %9, align 8
  br label %57

75:                                               ; preds = %57
  br label %76

76:                                               ; preds = %75
  %77 = load ptr, ptr %4, align 8
  %78 = load ptr, ptr %8, align 8
  %79 = call ptr @agnxtnode(ptr noundef %77, ptr noundef %78)
  store ptr %79, ptr %8, align 8
  br label %40

80:                                               ; preds = %40
  br label %81

81:                                               ; preds = %80, %34
  ret void
}