; Function Attrs: nounwind uwtable
define internal fastcc void @set_attrwf(ptr noundef %0, i1 noundef zeroext %1) unnamed_addr #0 {
  %3 = load i32, ptr %0, align 8
  %4 = and i32 %3, -9
  store i32 %4, ptr %0, align 8
  %5 = tail call ptr @agfstsubg(ptr noundef nonnull %0) #9
  %.not24 = icmp eq ptr %5, null
  br i1 %.not24, label %._crit_edge, label %.lr.ph

.lr.ph:                                           ; preds = %2, %.lr.ph
  %.02125 = phi ptr [ %6, %.lr.ph ], [ %5, %2 ]
  tail call fastcc void @set_attrwf(ptr noundef nonnull %.02125, i1 noundef zeroext false)
  %6 = tail call ptr @agnxtsubg(ptr noundef nonnull %.02125) #9
  %.not = icmp eq ptr %6, null
  br i1 %.not, label %._crit_edge, label %.lr.ph

._crit_edge:                                      ; preds = %.lr.ph, %2
  br i1 %1, label %7, label %.loopexit

7:                                                ; preds = %._crit_edge
  %8 = tail call ptr @agfstnode(ptr noundef nonnull %0) #9
  %.not2231 = icmp eq ptr %8, null
  br i1 %.not2231, label %.loopexit, label %.lr.ph34

.lr.ph34:                                         ; preds = %7, %._crit_edge30
  %.02032 = phi ptr [ %15, %._crit_edge30 ], [ %8, %7 ]
  %9 = load i32, ptr %.02032, align 8
  %10 = and i32 %9, -9
  store i32 %10, ptr %.02032, align 8
  %11 = tail call ptr @agfstout(ptr noundef nonnull %0, ptr noundef nonnull %.02032) #9
  %.not2326 = icmp eq ptr %11, null
  br i1 %.not2326, label %._crit_edge30, label %.lr.ph29

.lr.ph29:                                         ; preds = %.lr.ph34, %.lr.ph29
  %.027 = phi ptr [ %14, %.lr.ph29 ], [ %11, %.lr.ph34 ]
  %12 = load i32, ptr %.027, align 8
  %13 = and i32 %12, -9
  store i32 %13, ptr %.027, align 8
  %14 = tail call ptr @agnxtout(ptr noundef nonnull %0, ptr noundef nonnull %.027) #9
  %.not23 = icmp eq ptr %14, null
  br i1 %.not23, label %._crit_edge30, label %.lr.ph29

._crit_edge30:                                    ; preds = %.lr.ph29, %.lr.ph34
  %15 = tail call ptr @agnxtnode(ptr noundef nonnull %0, ptr noundef nonnull %.02032) #9
  %.not22 = icmp eq ptr %15, null
  br i1 %.not22, label %.loopexit, label %.lr.ph34

.loopexit:                                        ; preds = %._crit_edge30, %7, %._crit_edge
  ret void
}